; Function Attrs: mustprogress uwtable
define hidden noundef i32 @_ZN3nla15monomial_bounds13non_fixed_varERKNS_5monicE(ptr nocapture noundef nonnull readonly align 8 dereferenceable(192) %this, ptr nocapture noundef nonnull readonly align 8 dereferenceable(34) %m) local_unnamed_addr #3 align 2 {
entry:
  %m_vs.i.i = getelementptr inbounds i8, ptr %m, i64 8
  %0 = load ptr, ptr %m_vs.i.i, align 8
  %cmp.i.i.i = icmp eq ptr %0, null
  br i1 %cmp.i.i.i, label %return, label %_ZNK3nla5monic3endEv.exit

_ZNK3nla5monic3endEv.exit:                        ; preds = %entry
  %arrayidx.i.i.i = getelementptr inbounds i8, ptr %0, i64 -4
  %1 = load i32, ptr %arrayidx.i.i.i, align 4
  %2 = zext i32 %1 to i64
  %add.ptr.i.i = getelementptr inbounds i32, ptr %0, i64 %2
  %cmp.not6 = icmp eq i32 %1, 0
  br i1 %cmp.not6, label %return, label %for.body

for.cond:                                         ; preds = %for.body
  %incdec.ptr = getelementptr inbounds i8, ptr %__begin1.07, i64 4
  %cmp.not = icmp eq ptr %incdec.ptr, %add.ptr.i.i
  br i1 %cmp.not, label %return, label %for.body

for.body:                                         ; preds = %_ZNK3nla5monic3endEv.exit, %for.cond
  %__begin1.07 = phi ptr [ %incdec.ptr, %for.cond ], [ %0, %_ZNK3nla5monic3endEv.exit ]
  %3 = load i32, ptr %__begin1.07, align 4
  %4 = load ptr, ptr %this, align 8
  %call4 = tail call noundef zeroext i1 @_ZNK3nla4core12var_is_fixedEj(ptr noundef nonnull align 8 dereferenceable(4720) %4, i32 noundef %3)
  br i1 %call4, label %for.cond, label %return

return:                                           ; preds = %for.body, %for.cond, %entry, %_ZNK3nla5monic3endEv.exit
  %retval.0 = phi i32 [ -1, %_ZNK3nla5monic3endEv.exit ], [ -1, %entry ], [ -1, %for.cond ], [ %3, %for.body ]
  ret i32 %retval.0
}